target datalayout = "e-m:e-p270:32:32-p271:32:32-p272:64:64-i64:64-i128:128-f80:128-n8:16:32:64-S128"
target triple = "x86_64-pc-linux-gnu"

%struct.TEST_CASE = type { ptr, ptr, i8 }

@testAll = dso_local global i32 1, align 4
@.str.972 = private unnamed_addr constant [30 x i8] c"Test case name not found: %s\0A\00", align 1
@.str.973 = private unnamed_addr constant [40 x i8] c"Use --list to see all test case names.\0A\00", align 1

; Function Attrs: nounwind uwtable
define dso_local i32 @ApiTest_RunName(ptr noundef %0) #0 {
  %2 = alloca i32, align 4
  %3 = alloca ptr, align 8
  %4 = alloca i32, align 4
  %5 = alloca i32, align 4
  store ptr %0, ptr %3, align 8, !tbaa !32
  call void @llvm.lifetime.start.p0(i64 4, ptr %4) #14
  store i32 0, ptr %4, align 4, !tbaa !10
  br label %6

6:                                                ; preds = %27, %1
  %7 = load i32, ptr %4, align 4, !tbaa !10
  %8 = icmp slt i32 %7, 955
  br i1 %8, label %9, label %30

9:                                                ; preds = %6
  %10 = load i32, ptr %4, align 4, !tbaa !10
  %11 = sext i32 %10 to i64
  %12 = getelementptr inbounds [955 x %struct.TEST_CASE], ptr @testCases, i64 0, i64 %11
  %13 = getelementptr inbounds nuw %struct.TEST_CASE, ptr %12, i32 0, i32 0
  %14 = load ptr, ptr %13, align 8, !tbaa !205
  %15 = load ptr, ptr %3, align 8, !tbaa !32
  %16 = call i32 @strcmp(ptr noundef %14, ptr noundef %15) #15
  %17 = icmp eq i32 %16, 0
  br i1 %17, label %18, label %26

18:                                               ; preds = %9
  store i32 0, ptr @testAll, align 4, !tbaa !10
  %19 = load i32, ptr %4, align 4, !tbaa !10
  %20 = sext i32 %19 to i64
  %21 = getelementptr inbounds [955 x %struct.TEST_CASE], ptr @testCases, i64 0, i64 %20
  %22 = getelementptr inbounds nuw %struct.TEST_CASE, ptr %21, i32 0, i32 2
  %23 = load i8, ptr %22, align 8
  %24 = and i8 %23, -2
  %25 = or i8 %24, 1
  store i8 %25, ptr %22, align 8
  store i32 0, ptr %2, align 4
  store i32 1, ptr %5, align 4
  br label %34

26:                                               ; preds = %9
  br label %27

27:                                               ; preds = %26
  %28 = load i32, ptr %4, align 4, !tbaa !10
  %29 = add nsw i32 %28, 1
  store i32 %29, ptr %4, align 4, !tbaa !10
  br label %6, !llvm.loop !208

30:                                               ; preds = %6
  %31 = load ptr, ptr %3, align 8, !tbaa !32
  %32 = call i32 (ptr, ...) @printf(ptr noundef @.str.972, ptr noundef %31)
  %33 = call i32 (ptr, ...) @printf(ptr noundef @.str.973)
  store i32 -173, ptr %2, align 4
  store i32 1, ptr %5, align 4
  br label %34

34:                                               ; preds = %30, %18
  call void @llvm.lifetime.end.p0(i64 4, ptr %4) #14
  %35 = load i32, ptr %2, align 4
  ret i32 %35
}