; Function Attrs: nofree nounwind uwtable
define dso_local range(i32 -173, 1) i32 @ApiTest_RunName(ptr noundef %0) local_unnamed_addr #8 {
  br label %3

2:                                                ; preds = %3
  %indvars.iv.next = add nuw nsw i64 %indvars.iv, 1
  %exitcond.not = icmp eq i64 %indvars.iv.next, 955
  br i1 %exitcond.not, label %12, label %3, !llvm.loop !191

3:                                                ; preds = %1, %2
  %indvars.iv = phi i64 [ 0, %1 ], [ %indvars.iv.next, %2 ]
  %4 = getelementptr inbounds nuw [955 x %struct.TEST_CASE], ptr @testCases, i64 0, i64 %indvars.iv
  %5 = load ptr, ptr %4, align 8, !tbaa !188
  %6 = tail call i32 @strcmp(ptr noundef nonnull dereferenceable(1) %5, ptr noundef nonnull dereferenceable(1) %0) #32
  %7 = icmp eq i32 %6, 0
  br i1 %7, label %8, label %2

8:                                                ; preds = %3
  store i32 0, ptr @testAll, align 4, !tbaa !67
  %9 = getelementptr inbounds nuw i8, ptr %4, i64 16
  %10 = load i8, ptr %9, align 8
  %11 = or i8 %10, 1
  store i8 %11, ptr %9, align 8
  br label %14

12:                                               ; preds = %2
  %13 = tail call i32 (ptr, ...) @printf(ptr noundef nonnull dereferenceable(1) @.str.972, ptr noundef nonnull %0)
  %puts = tail call i32 @puts(ptr nonnull dereferenceable(1) @str.1)
  br label %14

14:                                               ; preds = %12, %8
  %.06 = phi i32 [ 0, %8 ], [ -173, %12 ]
  ret i32 %.06
}